target datalayout = "e-m:e-p270:32:32-p271:32:32-p272:64:64-i64:64-i128:128-f80:128-n8:16:32:64-S128"
target triple = "x86_64-pc-linux-gnu"

%"class.std::__cxx11::basic_string" = type { %"struct.std::__cxx11::basic_string<char>::_Alloc_hider", i64, %union.anon }
%"struct.std::__cxx11::basic_string<char>::_Alloc_hider" = type { ptr }
%union.anon = type { i64, [8 x i8] }
%class.anon.5 = type { i8 }
%class.anon.7 = type { ptr }

@__const._ZN32pxrInternal_v0_24__pxrReserved__L9_ReadUTF8ERPKhPNSt7__cxx1112basic_stringIcSt11char_traitsIcESaIcEEE.ordinalWords = private unnamed_addr constant [4 x ptr] [ptr @.str.8, ptr @.str.9, ptr @.str.10, ptr @.str.11], align 16
@.str.12 = private unnamed_addr constant [52 x i8] c"%d-byte UTF-8 code point lacks %s continuation byte\00", align 1
@.str.13 = private unnamed_addr constant [37 x i8] c"invalid UTF-8 code point byte 0x%hhx\00", align 1

; Function Attrs: mustprogress nounwind uwtable
define internal noundef zeroext i1 @"_ZZN32pxrInternal_v0_24__pxrReserved__L9_ReadUTF8ERPKhPNSt7__cxx1112basic_stringIcSt11char_traitsIcESaIcEEEENK3$_1clEh"(ptr noundef nonnull align 8 dereferenceable(8) %0, i8 noundef zeroext %1) #2 align 2 {
  %3 = alloca ptr, align 8
  %4 = alloca i8, align 1
  store ptr %0, ptr %3, align 8
  store i8 %1, ptr %4, align 1
  %5 = load ptr, ptr %3, align 8
  %6 = load i8, ptr %4, align 1
  %7 = zext i8 %6 to i32
  %8 = getelementptr inbounds nuw %class.anon.7, ptr %5, i32 0, i32 0
  %9 = load ptr, ptr %8, align 8
  %10 = call noundef zeroext i8 @"_ZZN32pxrInternal_v0_24__pxrReserved__L9_ReadUTF8ERPKhPNSt7__cxx1112basic_stringIcSt11char_traitsIcESaIcEEEENK3$_0clEi"(ptr noundef nonnull align 1 dereferenceable(1) %9, i32 noundef 2)
  %11 = zext i8 %10 to i32
  %12 = and i32 %7, %11
  %13 = getelementptr inbounds nuw %class.anon.7, ptr %5, i32 0, i32 0
  %14 = load ptr, ptr %13, align 8
  %15 = call noundef zeroext i8 @"_ZZN32pxrInternal_v0_24__pxrReserved__L9_ReadUTF8ERPKhPNSt7__cxx1112basic_stringIcSt11char_traitsIcESaIcEEEENK3$_0clEi"(ptr noundef nonnull align 1 dereferenceable(1) %14, i32 noundef 1)
  %16 = zext i8 %15 to i32
  %17 = icmp eq i32 %12, %16
  ret i1 %17
}

; Function Attrs: mustprogress nounwind uwtable
define internal noundef zeroext i8 @"_ZZN32pxrInternal_v0_24__pxrReserved__L9_ReadUTF8ERPKhPNSt7__cxx1112basic_stringIcSt11char_traitsIcESaIcEEEENK3$_0clEi"(ptr noundef nonnull align 1 dereferenceable(1) %0, i32 noundef %1) #2 align 2 {
  %3 = alloca ptr, align 8
  %4 = alloca i32, align 4
  store ptr %0, ptr %3, align 8
  store i32 %1, ptr %4, align 4
  %5 = load i32, ptr %4, align 4
  %6 = shl i32 1, %5
  %7 = sub nsw i32 %6, 1
  %8 = load i32, ptr %4, align 4
  %9 = sub nsw i32 8, %8
  %10 = shl i32 %7, %9
  %11 = trunc i32 %10 to i8
  ret i8 %11
}

; Function Attrs: mustprogress uwtable
define internal noundef i32 @_ZN32pxrInternal_v0_24__pxrReserved__L9_ReadUTF8ERPKhPNSt7__cxx1112basic_stringIcSt11char_traitsIcESaIcEEE(ptr noundef nonnull align 8 dereferenceable(8) %0, ptr noundef %1) #0 {
  %3 = alloca i32, align 4
  %4 = alloca ptr, align 8
  %5 = alloca ptr, align 8
  %6 = alloca %class.anon.5, align 1
  %7 = alloca %class.anon.7, align 8
  %8 = alloca i32, align 4
  %9 = alloca i32, align 4
  %10 = alloca i32, align 4
  %11 = alloca [4 x ptr], align 16
  %12 = alloca %"class.std::__cxx11::basic_string", align 8
  %13 = alloca %"class.std::__cxx11::basic_string", align 8
  store ptr %0, ptr %4, align 8
  store ptr %1, ptr %5, align 8
  %14 = getelementptr inbounds nuw %class.anon.7, ptr %7, i32 0, i32 0
  store ptr %6, ptr %14, align 8
  %15 = load ptr, ptr %4, align 8
  %16 = load ptr, ptr %15, align 8
  %17 = load i8, ptr %16, align 1
  %18 = zext i8 %17 to i32
  %19 = call noundef zeroext i8 @"_ZZN32pxrInternal_v0_24__pxrReserved__L9_ReadUTF8ERPKhPNSt7__cxx1112basic_stringIcSt11char_traitsIcESaIcEEEENK3$_0clEi"(ptr noundef nonnull align 1 dereferenceable(1) %6, i32 noundef 1)
  %20 = zext i8 %19 to i32
  %21 = and i32 %18, %20
  %22 = icmp eq i32 %21, 0
  br i1 %22, label %23, label %29

23:                                               ; preds = %2
  %24 = load ptr, ptr %4, align 8
  %25 = load ptr, ptr %24, align 8
  %26 = getelementptr inbounds i8, ptr %25, i32 1
  store ptr %26, ptr %24, align 8
  %27 = load i8, ptr %25, align 1
  %28 = zext i8 %27 to i32
  store i32 %28, ptr %3, align 4
  br label %115

29:                                               ; preds = %2
  store i32 2, ptr %8, align 4
  br label %30

30:                                               ; preds = %105, %29
  %31 = load i32, ptr %8, align 4
  %32 = icmp sle i32 %31, 4
  br i1 %32, label %33, label %108

33:                                               ; preds = %30
  %34 = load ptr, ptr %4, align 8
  %35 = load ptr, ptr %34, align 8
  %36 = load i8, ptr %35, align 1
  %37 = zext i8 %36 to i32
  %38 = load i32, ptr %8, align 4
  %39 = add nsw i32 %38, 1
  %40 = call noundef zeroext i8 @"_ZZN32pxrInternal_v0_24__pxrReserved__L9_ReadUTF8ERPKhPNSt7__cxx1112basic_stringIcSt11char_traitsIcESaIcEEEENK3$_0clEi"(ptr noundef nonnull align 1 dereferenceable(1) %6, i32 noundef %39)
  %41 = zext i8 %40 to i32
  %42 = and i32 %37, %41
  %43 = load i32, ptr %8, align 4
  %44 = call noundef zeroext i8 @"_ZZN32pxrInternal_v0_24__pxrReserved__L9_ReadUTF8ERPKhPNSt7__cxx1112basic_stringIcSt11char_traitsIcESaIcEEEENK3$_0clEi"(ptr noundef nonnull align 1 dereferenceable(1) %6, i32 noundef %43)
  %45 = zext i8 %44 to i32
  %46 = icmp eq i32 %42, %45
  br i1 %46, label %47, label %104

47:                                               ; preds = %33
  %48 = load ptr, ptr %4, align 8
  %49 = load ptr, ptr %48, align 8
  %50 = load i8, ptr %49, align 1
  %51 = zext i8 %50 to i32
  %52 = load i32, ptr %8, align 4
  %53 = add nsw i32 %52, 1
  %54 = call noundef zeroext i8 @"_ZZN32pxrInternal_v0_24__pxrReserved__L9_ReadUTF8ERPKhPNSt7__cxx1112basic_stringIcSt11char_traitsIcESaIcEEEENK3$_0clEi"(ptr noundef nonnull align 1 dereferenceable(1) %6, i32 noundef %53)
  %55 = zext i8 %54 to i32
  %56 = xor i32 %55, -1
  %57 = and i32 %51, %56
  store i32 %57, ptr %9, align 4
  store i32 1, ptr %10, align 4
  br label %58

58:                                               ; preds = %94, %47
  %59 = load i32, ptr %10, align 4
  %60 = load i32, ptr %8, align 4
  %61 = icmp ne i32 %59, %60
  br i1 %61, label %62, label %97

62:                                               ; preds = %58
  %63 = load ptr, ptr %4, align 8
  %64 = load ptr, ptr %63, align 8
  %65 = load i32, ptr %10, align 4
  %66 = sext i32 %65 to i64
  %67 = getelementptr inbounds i8, ptr %64, i64 %66
  %68 = load i8, ptr %67, align 1
  %69 = call noundef zeroext i1 @"_ZZN32pxrInternal_v0_24__pxrReserved__L9_ReadUTF8ERPKhPNSt7__cxx1112basic_stringIcSt11char_traitsIcESaIcEEEENK3$_1clEh"(ptr noundef nonnull align 8 dereferenceable(8) %7, i8 noundef zeroext %68)
  br i1 %69, label %79, label %70

70:                                               ; preds = %62
  call void @llvm.memcpy.p0.p0.i64(ptr align 16 %11, ptr align 16 @__const._ZN32pxrInternal_v0_24__pxrReserved__L9_ReadUTF8ERPKhPNSt7__cxx1112basic_stringIcSt11char_traitsIcESaIcEEE.ordinalWords, i64 32, i1 false)
  %71 = load i32, ptr %8, align 4
  %72 = load i32, ptr %10, align 4
  %73 = sub nsw i32 %72, 1
  %74 = sext i32 %73 to i64
  %75 = getelementptr inbounds [4 x ptr], ptr %11, i64 0, i64 %74
  %76 = load ptr, ptr %75, align 8
  call void (ptr, ptr, ...) @_ZN32pxrInternal_v0_24__pxrReserved__14TfStringPrintfB5cxx11EPKcz(ptr dead_on_unwind writable sret(%"class.std::__cxx11::basic_string") align 8 %12, ptr noundef @.str.12, i32 noundef %71, ptr noundef %76)
  %77 = load ptr, ptr %5, align 8
  %78 = call noundef nonnull align 8 dereferenceable(32) ptr @_ZNSt7__cxx1112basic_stringIcSt11char_traitsIcESaIcEEaSEOS4_(ptr noundef nonnull align 8 dereferenceable(32) %77, ptr noundef nonnull align 8 dereferenceable(32) %12) #5
  call void @_ZNSt7__cxx1112basic_stringIcSt11char_traitsIcESaIcEED1Ev(ptr noundef nonnull align 8 dereferenceable(32) %12) #5
  store i32 -1, ptr %3, align 4
  br label %115

79:                                               ; preds = %62
  %80 = load i32, ptr %9, align 4
  %81 = shl i32 %80, 6
  %82 = load ptr, ptr %4, align 8
  %83 = load ptr, ptr %82, align 8
  %84 = load i32, ptr %10, align 4
  %85 = sext i32 %84 to i64
  %86 = getelementptr inbounds i8, ptr %83, i64 %85
  %87 = load i8, ptr %86, align 1
  %88 = zext i8 %87 to i32
  %89 = call noundef zeroext i8 @"_ZZN32pxrInternal_v0_24__pxrReserved__L9_ReadUTF8ERPKhPNSt7__cxx1112basic_stringIcSt11char_traitsIcESaIcEEEENK3$_0clEi"(ptr noundef nonnull align 1 dereferenceable(1) %6, i32 noundef 2)
  %90 = zext i8 %89 to i32
  %91 = xor i32 %90, -1
  %92 = and i32 %88, %91
  %93 = or i32 %81, %92
  store i32 %93, ptr %9, align 4
  br label %94

94:                                               ; preds = %79
  %95 = load i32, ptr %10, align 4
  %96 = add nsw i32 %95, 1
  store i32 %96, ptr %10, align 4
  br label %58, !llvm.loop !6

97:                                               ; preds = %58
  %98 = load i32, ptr %8, align 4
  %99 = load ptr, ptr %4, align 8
  %100 = load ptr, ptr %99, align 8
  %101 = sext i32 %98 to i64
  %102 = getelementptr inbounds i8, ptr %100, i64 %101
  store ptr %102, ptr %99, align 8
  %103 = load i32, ptr %9, align 4
  store i32 %103, ptr %3, align 4
  br label %115

104:                                              ; preds = %33
  br label %105

105:                                              ; preds = %104
  %106 = load i32, ptr %8, align 4
  %107 = add nsw i32 %106, 1
  store i32 %107, ptr %8, align 4
  br label %30, !llvm.loop !7

108:                                              ; preds = %30
  %109 = load ptr, ptr %4, align 8
  %110 = load ptr, ptr %109, align 8
  %111 = load i8, ptr %110, align 1
  %112 = zext i8 %111 to i32
  call void (ptr, ptr, ...) @_ZN32pxrInternal_v0_24__pxrReserved__14TfStringPrintfB5cxx11EPKcz(ptr dead_on_unwind writable sret(%"class.std::__cxx11::basic_string") align 8 %13, ptr noundef @.str.13, i32 noundef %112)
  %113 = load ptr, ptr %5, align 8
  %114 = call noundef nonnull align 8 dereferenceable(32) ptr @_ZNSt7__cxx1112basic_stringIcSt11char_traitsIcESaIcEEaSEOS4_(ptr noundef nonnull align 8 dereferenceable(32) %113, ptr noundef nonnull align 8 dereferenceable(32) %13) #5
  call void @_ZNSt7__cxx1112basic_stringIcSt11char_traitsIcESaIcEED1Ev(ptr noundef nonnull align 8 dereferenceable(32) %13) #5
  store i32 -1, ptr %3, align 4
  br label %115

115:                                              ; preds = %108, %97, %70, %23
  %116 = load i32, ptr %3, align 4
  ret i32 %116
}