; Function Attrs: mustprogress uwtable
define internal fastcc noundef i32 @_ZN32pxrInternal_v0_24__pxrReserved__L9_ReadUTF8ERPKhPNSt7__cxx1112basic_stringIcSt11char_traitsIcESaIcEEE(ptr nocapture noundef nonnull align 8 dereferenceable(8) %0, ptr noundef %1) unnamed_addr #0 {
  %3 = alloca %"class.std::__cxx11::basic_string", align 8
  %4 = alloca %"class.std::__cxx11::basic_string", align 8
  %5 = load ptr, ptr %0, align 8
  %6 = load i8, ptr %5, align 1
  %7 = icmp sgt i8 %6, -1
  br i1 %7, label %8, label %.preheader

8:                                                ; preds = %2
  %9 = getelementptr inbounds i8, ptr %5, i64 1
  store ptr %9, ptr %0, align 8
  %10 = load i8, ptr %5, align 1
  %11 = zext i8 %10 to i32
  br label %50

.preheader:                                       ; preds = %2, %12
  %.026 = phi i32 [ %13, %12 ], [ 2, %2 ]
  %exitcond.not = icmp eq i32 %.026, 5
  br i1 %exitcond.not, label %47, label %12

12:                                               ; preds = %.preheader
  %13 = add nuw nsw i32 %.026, 1
  %notmask.i = shl nsw i32 -2, %.026
  %14 = xor i32 %notmask.i, -1
  %15 = sub nuw nsw i32 7, %.026
  %16 = shl nuw nsw i32 %14, %15
  %17 = trunc i32 %16 to i8
  %18 = and i8 %6, %17
  %notmask.i28 = shl nsw i32 -1, %.026
  %19 = xor i32 %notmask.i28, -1
  %20 = sub nuw nsw i32 8, %.026
  %21 = shl nuw nsw i32 %19, %20
  %22 = trunc i32 %21 to i8
  %23 = icmp eq i8 %18, %22
  br i1 %23, label %24, label %.preheader, !llvm.loop !12

24:                                               ; preds = %12
  %25 = zext i8 %6 to i32
  %26 = xor i32 %16, -1
  %27 = and i32 %26, %25
  %28 = zext nneg i32 %.026 to i64
  br label %29

29:                                               ; preds = %24, %40
  %indvars.iv = phi i64 [ 1, %24 ], [ %indvars.iv.next, %40 ]
  %.02533 = phi i32 [ %27, %24 ], [ %44, %40 ]
  %30 = getelementptr inbounds i8, ptr %5, i64 %indvars.iv
  %31 = load i8, ptr %30, align 1
  %32 = and i8 %31, -64
  %33 = icmp eq i8 %32, -128
  br i1 %33, label %40, label %34

34:                                               ; preds = %29
  %35 = shl i64 %indvars.iv, 32
  %sext = add i64 %35, -4294967296
  %36 = ashr exact i64 %sext, 32
  %37 = getelementptr inbounds [4 x ptr], ptr @__const._ZN32pxrInternal_v0_24__pxrReserved__L9_ReadUTF8ERPKhPNSt7__cxx1112basic_stringIcSt11char_traitsIcESaIcEEE.ordinalWords, i64 0, i64 %36
  %38 = load ptr, ptr %37, align 8
  call void (ptr, ptr, ...) @_ZN32pxrInternal_v0_24__pxrReserved__14TfStringPrintfB5cxx11EPKcz(ptr dead_on_unwind nonnull writable sret(%"class.std::__cxx11::basic_string") align 8 %3, ptr noundef nonnull @.str.12, i32 noundef %.026, ptr noundef %38)
  %39 = call noundef nonnull align 8 dereferenceable(32) ptr @_ZNSt7__cxx1112basic_stringIcSt11char_traitsIcESaIcEEaSEOS4_(ptr noundef nonnull align 8 dereferenceable(32) %1, ptr noundef nonnull align 8 dereferenceable(32) %3) #16
  call void @_ZNSt7__cxx1112basic_stringIcSt11char_traitsIcESaIcEED1Ev(ptr noundef nonnull align 8 dereferenceable(32) %3) #16
  br label %50

40:                                               ; preds = %29
  %41 = shl i32 %.02533, 6
  %42 = and i8 %31, 63
  %43 = zext nneg i8 %42 to i32
  %44 = or disjoint i32 %41, %43
  %indvars.iv.next = add nuw nsw i64 %indvars.iv, 1
  %.not = icmp eq i64 %indvars.iv.next, %28
  br i1 %.not, label %45, label %29, !llvm.loop !13

45:                                               ; preds = %40
  %46 = getelementptr inbounds i8, ptr %5, i64 %28
  store ptr %46, ptr %0, align 8
  br label %50

47:                                               ; preds = %.preheader
  %48 = zext i8 %6 to i32
  call void (ptr, ptr, ...) @_ZN32pxrInternal_v0_24__pxrReserved__14TfStringPrintfB5cxx11EPKcz(ptr dead_on_unwind nonnull writable sret(%"class.std::__cxx11::basic_string") align 8 %4, ptr noundef nonnull @.str.13, i32 noundef %48)
  %49 = call noundef nonnull align 8 dereferenceable(32) ptr @_ZNSt7__cxx1112basic_stringIcSt11char_traitsIcESaIcEEaSEOS4_(ptr noundef nonnull align 8 dereferenceable(32) %1, ptr noundef nonnull align 8 dereferenceable(32) %4) #16
  call void @_ZNSt7__cxx1112basic_stringIcSt11char_traitsIcESaIcEED1Ev(ptr noundef nonnull align 8 dereferenceable(32) %4) #16
  br label %50

50:                                               ; preds = %47, %45, %34, %8
  %.027 = phi i32 [ %11, %8 ], [ -1, %34 ], [ %44, %45 ], [ -1, %47 ]
  ret i32 %.027
}